; ModuleID = '7/1108.c'
source_filename = "7/1108.c"
target datalayout = "e-m:e-p270:32:32-p271:32:32-p272:64:64-i64:64-f80:128-n8:16:32:64-S128"
target triple = "x86_64-pc-linux-gnu"

@.str = private unnamed_addr constant [9 x i8] c"%s %s %s\00", align 1
@.str.1 = private unnamed_addr constant [3 x i8] c"%c\00", align 1
@.str.2 = private unnamed_addr constant [3 x i8] c"%s\00", align 1

; Function Attrs: noinline nounwind uwtable
define dso_local i32 @main() #0 {
  %1 = alloca i32, align 4
  %2 = alloca i32, align 4
  %3 = alloca i32, align 4
  %4 = alloca i32, align 4
  %5 = alloca i32, align 4
  %6 = alloca i32, align 4
  %7 = alloca [260 x i8], align 16
  %8 = alloca [260 x i8], align 16
  %9 = alloca [260 x i8], align 16
  store i32 0, i32* %1, align 4
  store i32 0, i32* %4, align 4
  store i32 0, i32* %6, align 4
  %10 = bitcast [260 x i8]* %7 to i8*
  call void @llvm.memset.p0i8.i64(i8* align 16 %10, i8 0, i64 260, i1 false)
  %11 = bitcast [260 x i8]* %8 to i8*
  call void @llvm.memset.p0i8.i64(i8* align 16 %11, i8 0, i64 260, i1 false)
  %12 = bitcast [260 x i8]* %9 to i8*
  call void @llvm.memset.p0i8.i64(i8* align 16 %12, i8 0, i64 260, i1 false)
  %13 = getelementptr inbounds [260 x i8], [260 x i8]* %8, i64 0, i64 0
  %14 = getelementptr inbounds [260 x i8], [260 x i8]* %7, i64 0, i64 0
  %15 = getelementptr inbounds [260 x i8], [260 x i8]* %9, i64 0, i64 0
  %16 = call i32 (i8*, ...) @__isoc99_scanf(i8* getelementptr inbounds ([9 x i8], [9 x i8]* @.str, i64 0, i64 0), i8* %13, i8* %14, i8* %15)
  store i32 0, i32* %2, align 4
  br label %17

17:                                               ; preds = %67, %0
  %18 = load i32, i32* %2, align 4
  %19 = sext i32 %18 to i64
  %20 = getelementptr inbounds [260 x i8], [260 x i8]* %8, i64 0, i64 0
  %21 = call i64 @strlen(i8* %20) #4
  %22 = icmp ult i64 %19, %21
  br i1 %22, label %23, label %70

23:                                               ; preds = %17
  %24 = load i32, i32* %2, align 4
  %25 = sext i32 %24 to i64
  %26 = getelementptr inbounds [260 x i8], [260 x i8]* %8, i64 0, i64 %25
  %27 = load i8, i8* %26, align 1
  %28 = sext i8 %27 to i32
  %29 = getelementptr inbounds [260 x i8], [260 x i8]* %7, i64 0, i64 0
  %30 = load i8, i8* %29, align 16
  %31 = sext i8 %30 to i32
  %32 = icmp eq i32 %28, %31
  br i1 %32, label %33, label %66

33:                                               ; preds = %23
  store i32 0, i32* %3, align 4
  br label %34

34:                                               ; preds = %56, %33
  %35 = load i32, i32* %3, align 4
  %36 = sext i32 %35 to i64
  %37 = getelementptr inbounds [260 x i8], [260 x i8]* %7, i64 0, i64 0
  %38 = call i64 @strlen(i8* %37) #4
  %39 = icmp ult i64 %36, %38
  br i1 %39, label %40, label %59

40:                                               ; preds = %34
  %41 = load i32, i32* %2, align 4
  %42 = load i32, i32* %3, align 4
  %43 = add nsw i32 %41, %42
  %44 = sext i32 %43 to i64
  %45 = getelementptr inbounds [260 x i8], [260 x i8]* %8, i64 0, i64 %44
  %46 = load i8, i8* %45, align 1
  %47 = sext i8 %46 to i32
  %48 = load i32, i32* %3, align 4
  %49 = sext i32 %48 to i64
  %50 = getelementptr inbounds [260 x i8], [260 x i8]* %7, i64 0, i64 %49
  %51 = load i8, i8* %50, align 1
  %52 = sext i8 %51 to i32
  %53 = icmp ne i32 %47, %52
  br i1 %53, label %54, label %55

54:                                               ; preds = %40
  store i32 1, i32* %4, align 4
  br label %55

55:                                               ; preds = %54, %40
  br label %56

56:                                               ; preds = %55
  %57 = load i32, i32* %3, align 4
  %58 = add nsw i32 %57, 1
  store i32 %58, i32* %3, align 4
  br label %34

59:                                               ; preds = %34
  %60 = load i32, i32* %4, align 4
  %61 = icmp eq i32 %60, 0
  br i1 %61, label %62, label %64

62:                                               ; preds = %59
  %63 = load i32, i32* %2, align 4
  store i32 %63, i32* %5, align 4
  store i32 1, i32* %6, align 4
  br label %70

64:                                               ; preds = %59
  store i32 0, i32* %4, align 4
  br label %65

65:                                               ; preds = %64
  br label %66

66:                                               ; preds = %65, %23
  br label %67

67:                                               ; preds = %66
  %68 = load i32, i32* %2, align 4
  %69 = add nsw i32 %68, 1
  store i32 %69, i32* %2, align 4
  br label %17

70:                                               ; preds = %62, %17
  %71 = load i32, i32* %6, align 4
  %72 = icmp eq i32 %71, 1
  br i1 %72, label %73, label %114

73:                                               ; preds = %70
  store i32 0, i32* %2, align 4
  br label %74

74:                                               ; preds = %85, %73
  %75 = load i32, i32* %2, align 4
  %76 = load i32, i32* %5, align 4
  %77 = icmp slt i32 %75, %76
  br i1 %77, label %78, label %88

78:                                               ; preds = %74
  %79 = load i32, i32* %2, align 4
  %80 = sext i32 %79 to i64
  %81 = getelementptr inbounds [260 x i8], [260 x i8]* %8, i64 0, i64 %80
  %82 = load i8, i8* %81, align 1
  %83 = sext i8 %82 to i32
  %84 = call i32 (i8*, ...) @printf(i8* getelementptr inbounds ([3 x i8], [3 x i8]* @.str.1, i64 0, i64 0), i32 %83)
  br label %85

85:                                               ; preds = %78
  %86 = load i32, i32* %2, align 4
  %87 = add nsw i32 %86, 1
  store i32 %87, i32* %2, align 4
  br label %74

88:                                               ; preds = %74
  %89 = getelementptr inbounds [260 x i8], [260 x i8]* %9, i64 0, i64 0
  %90 = call i32 (i8*, ...) @printf(i8* getelementptr inbounds ([3 x i8], [3 x i8]* @.str.2, i64 0, i64 0), i8* %89)
  %91 = load i32, i32* %5, align 4
  %92 = sext i32 %91 to i64
  %93 = getelementptr inbounds [260 x i8], [260 x i8]* %7, i64 0, i64 0
  %94 = call i64 @strlen(i8* %93) #4
  %95 = add i64 %92, %94
  %96 = trunc i64 %95 to i32
  store i32 %96, i32* %2, align 4
  br label %97

97:                                               ; preds = %110, %88
  %98 = load i32, i32* %2, align 4
  %99 = sext i32 %98 to i64
  %100 = getelementptr inbounds [260 x i8], [260 x i8]* %8, i64 0, i64 0
  %101 = call i64 @strlen(i8* %100) #4
  %102 = icmp ult i64 %99, %101
  br i1 %102, label %103, label %113

103:                                              ; preds = %97
  %104 = load i32, i32* %2, align 4
  %105 = sext i32 %104 to i64
  %106 = getelementptr inbounds [260 x i8], [260 x i8]* %8, i64 0, i64 %105
  %107 = load i8, i8* %106, align 1
  %108 = sext i8 %107 to i32
  %109 = call i32 (i8*, ...) @printf(i8* getelementptr inbounds ([3 x i8], [3 x i8]* @.str.1, i64 0, i64 0), i32 %108)
  br label %110

110:                                              ; preds = %103
  %111 = load i32, i32* %2, align 4
  %112 = add nsw i32 %111, 1
  store i32 %112, i32* %2, align 4
  br label %97

113:                                              ; preds = %97
  br label %117

114:                                              ; preds = %70
  %115 = getelementptr inbounds [260 x i8], [260 x i8]* %8, i64 0, i64 0
  %116 = call i32 (i8*, ...) @printf(i8* getelementptr inbounds ([3 x i8], [3 x i8]* @.str.2, i64 0, i64 0), i8* %115)
  br label %117

117:                                              ; preds = %114, %113
  ret i32 0
}

; Function Attrs: argmemonly nounwind willreturn
declare void @llvm.memset.p0i8.i64(i8* nocapture writeonly, i8, i64, i1 immarg) #1

declare dso_local i32 @__isoc99_scanf(i8*, ...) #2

; Function Attrs: nounwind readonly
declare dso_local i64 @strlen(i8*) #3

declare dso_local i32 @printf(i8*, ...) #2


!llvm.module.flags = !{!0}
!llvm.ident = !{!1}

!0 = !{i32 1, !"wchar_size", i32 4}
!1 = !{!"clang version 10.0.0-4ubuntu1 "}
